; Function Attrs: nounwind uwtable
define i32 @cli_bcapi_hashset_remove(ptr nocapture noundef readonly %0, i32 noundef %1, i32 noundef %2) local_unnamed_addr #1 {
  %4 = icmp slt i32 %1, 0
  br i1 %4, label %get_hashset.exit.thread, label %5

5:                                                ; preds = %3
  %6 = getelementptr inbounds i8, ptr %0, i64 1236
  %7 = load i32, ptr %6, align 4
  %.not.i = icmp ugt i32 %7, %1
  br i1 %.not.i, label %8, label %get_hashset.exit.thread

8:                                                ; preds = %5
  %9 = getelementptr inbounds i8, ptr %0, i64 1248
  %10 = load ptr, ptr %9, align 8
  %.not9.i = icmp eq ptr %10, null
  br i1 %.not9.i, label %get_hashset.exit.thread, label %get_hashset.exit

get_hashset.exit.thread:                          ; preds = %3, %5, %8
  %11 = getelementptr inbounds i8, ptr %0, i64 1312
  %12 = load ptr, ptr %11, align 8
  tail call void @cli_event_error_str(ptr noundef %12, ptr noundef nonnull @.str.134) #29
  br label %18

get_hashset.exit:                                 ; preds = %8
  %13 = zext nneg i32 %1 to i64
  %14 = getelementptr inbounds %struct.cli_hashset, ptr %10, i64 %13
  %15 = tail call i32 @cli_hashset_removekey(ptr noundef nonnull %14, i32 noundef %2) #29
  %16 = icmp ne i32 %15, 0
  %17 = sext i1 %16 to i32
  br label %18

18:                                               ; preds = %get_hashset.exit.thread, %get_hashset.exit
  %.0 = phi i32 [ %17, %get_hashset.exit ], [ -1, %get_hashset.exit.thread ]
  ret i32 %.0
}